	.section	__TEXT,__text,regular,pure_instructions
	.build_version macos, 10, 15	sdk_version 10, 15, 6
	.globl	_main                   ## -- Begin function main
	.p2align	4, 0x90
_main:                                  ## @main
	.cfi_startproc
## %bb.0:
	pushq	%rbp
	.cfi_def_cfa_offset 16
	.cfi_offset %rbp, -16
	movq	%rsp, %rbp
	.cfi_def_cfa_register %rbp
	subq	$112, %rsp
	leaq	-96(%rbp), %rdi
	movq	___stack_chk_guard@GOTPCREL(%rip), %rax
	movq	(%rax), %rax
	movq	%rax, -8(%rbp)
	leaq	L_.str(%rip), %rsi
	movl	$80, %edx
	callq	___strcpy_chk
	leaq	-96(%rbp), %rdi
	movq	%rax, -104(%rbp)        ## 8-byte Spill
	callq	_mudar
	leaq	-96(%rbp), %rdi
	callq	_puts
	movq	___stack_chk_guard@GOTPCREL(%rip), %rcx
	movq	(%rcx), %rcx
	movq	-8(%rbp), %rdx
	cmpq	%rdx, %rcx
	jne	LBB0_2
## %bb.1:
	xorl	%eax, %eax
	addq	$112, %rsp
	popq	%rbp
	retq
LBB0_2:
	callq	___stack_chk_fail
	ud2
	.cfi_endproc
                                        ## -- End function
	.globl	_mudar                  ## -- Begin function mudar
	.p2align	4, 0x90
_mudar:                                 ## @mudar
	.cfi_startproc
## %bb.0:
	pushq	%rbp
	.cfi_def_cfa_offset 16
	.cfi_offset %rbp, -16
	movq	%rsp, %rbp
	.cfi_def_cfa_register %rbp
	movq	%rdi, -8(%rbp)
	cmpq	$0, -8(%rbp)
	je	LBB1_2
## %bb.1:
	movq	-8(%rbp), %rax
	movb	$35, (%rax)
LBB1_2:
	popq	%rbp
	retq
	.cfi_endproc
                                        ## -- End function
	.section	__TEXT,__cstring,cstring_literals
L_.str:                                 ## @.str
	.asciz	"  ana thayna"

.subsections_via_symbols
